target datalayout = "e-m:e-p270:32:32-p271:32:32-p272:64:64-i64:64-i128:128-f80:128-n8:16:32:64-S128"
target triple = "x86_64-pc-linux-gnu"

%struct.slurmdb_tres_rec_t = type { i64, i32, i64, i32, ptr, ptr }

; Function Attrs: nounwind uwtable
define dso_local i32 @slurmdb_sort_tres_by_id_asc(ptr noundef %0, ptr noundef %1) #0 {
  %3 = alloca i32, align 4
  %4 = alloca ptr, align 8
  %5 = alloca ptr, align 8
  %6 = alloca ptr, align 8
  %7 = alloca ptr, align 8
  %8 = alloca i32, align 4
  %9 = alloca i32, align 4
  store ptr %0, ptr %4, align 8
  store ptr %1, ptr %5, align 8
  call void @llvm.lifetime.start.p0(i64 8, ptr %6) #10
  %10 = load ptr, ptr %4, align 8
  %11 = load ptr, ptr %10, align 8
  store ptr %11, ptr %6, align 8
  call void @llvm.lifetime.start.p0(i64 8, ptr %7) #10
  %12 = load ptr, ptr %5, align 8
  %13 = load ptr, ptr %12, align 8
  store ptr %13, ptr %7, align 8
  %14 = load ptr, ptr %6, align 8
  %15 = getelementptr inbounds nuw %struct.slurmdb_tres_rec_t, ptr %14, i32 0, i32 3
  %16 = load i32, ptr %15, align 8
  %17 = icmp ugt i32 %16, 9
  br i1 %17, label %18, label %59

18:                                               ; preds = %2
  %19 = load ptr, ptr %7, align 8
  %20 = getelementptr inbounds nuw %struct.slurmdb_tres_rec_t, ptr %19, i32 0, i32 3
  %21 = load i32, ptr %20, align 8
  %22 = icmp ugt i32 %21, 9
  br i1 %22, label %23, label %59

23:                                               ; preds = %18
  call void @llvm.lifetime.start.p0(i64 4, ptr %8) #10
  %24 = load ptr, ptr %6, align 8
  %25 = getelementptr inbounds nuw %struct.slurmdb_tres_rec_t, ptr %24, i32 0, i32 5
  %26 = load ptr, ptr %25, align 8
  %27 = load ptr, ptr %7, align 8
  %28 = getelementptr inbounds nuw %struct.slurmdb_tres_rec_t, ptr %27, i32 0, i32 5
  %29 = load ptr, ptr %28, align 8
  %30 = call i32 @xstrcmp(ptr noundef %26, ptr noundef %29)
  store i32 %30, ptr %8, align 4
  %31 = load i32, ptr %8, align 4
  %32 = icmp slt i32 %31, 0
  br i1 %32, label %33, label %34

33:                                               ; preds = %23
  store i32 -1, ptr %3, align 4
  store i32 1, ptr %9, align 4
  br label %56

34:                                               ; preds = %23
  %35 = load i32, ptr %8, align 4
  %36 = icmp sgt i32 %35, 0
  br i1 %36, label %37, label %38

37:                                               ; preds = %34
  store i32 1, ptr %3, align 4
  store i32 1, ptr %9, align 4
  br label %56

38:                                               ; preds = %34
  br label %39

39:                                               ; preds = %38
  %40 = load ptr, ptr %6, align 8
  %41 = getelementptr inbounds nuw %struct.slurmdb_tres_rec_t, ptr %40, i32 0, i32 4
  %42 = load ptr, ptr %41, align 8
  %43 = load ptr, ptr %7, align 8
  %44 = getelementptr inbounds nuw %struct.slurmdb_tres_rec_t, ptr %43, i32 0, i32 4
  %45 = load ptr, ptr %44, align 8
  %46 = call i32 @xstrcmp(ptr noundef %42, ptr noundef %45)
  store i32 %46, ptr %8, align 4
  %47 = load i32, ptr %8, align 4
  %48 = icmp slt i32 %47, 0
  br i1 %48, label %49, label %50

49:                                               ; preds = %39
  store i32 -1, ptr %3, align 4
  store i32 1, ptr %9, align 4
  br label %56

50:                                               ; preds = %39
  %51 = load i32, ptr %8, align 4
  %52 = icmp sgt i32 %51, 0
  br i1 %52, label %53, label %54

53:                                               ; preds = %50
  store i32 1, ptr %3, align 4
  store i32 1, ptr %9, align 4
  br label %56

54:                                               ; preds = %50
  br label %55

55:                                               ; preds = %54
  store i32 0, ptr %9, align 4
  br label %56

56:                                               ; preds = %55, %53, %49, %37, %33
  call void @llvm.lifetime.end.p0(i64 4, ptr %8) #10
  %57 = load i32, ptr %9, align 4
  switch i32 %57, label %79 [
    i32 0, label %58
  ]

58:                                               ; preds = %56
  br label %59

59:                                               ; preds = %58, %18, %2
  %60 = load ptr, ptr %6, align 8
  %61 = getelementptr inbounds nuw %struct.slurmdb_tres_rec_t, ptr %60, i32 0, i32 3
  %62 = load i32, ptr %61, align 8
  %63 = load ptr, ptr %7, align 8
  %64 = getelementptr inbounds nuw %struct.slurmdb_tres_rec_t, ptr %63, i32 0, i32 3
  %65 = load i32, ptr %64, align 8
  %66 = icmp ult i32 %62, %65
  br i1 %66, label %67, label %68

67:                                               ; preds = %59
  store i32 -1, ptr %3, align 4
  store i32 1, ptr %9, align 4
  br label %79

68:                                               ; preds = %59
  %69 = load ptr, ptr %6, align 8
  %70 = getelementptr inbounds nuw %struct.slurmdb_tres_rec_t, ptr %69, i32 0, i32 3
  %71 = load i32, ptr %70, align 8
  %72 = load ptr, ptr %7, align 8
  %73 = getelementptr inbounds nuw %struct.slurmdb_tres_rec_t, ptr %72, i32 0, i32 3
  %74 = load i32, ptr %73, align 8
  %75 = icmp ugt i32 %71, %74
  br i1 %75, label %76, label %77

76:                                               ; preds = %68
  store i32 1, ptr %3, align 4
  store i32 1, ptr %9, align 4
  br label %79

77:                                               ; preds = %68
  br label %78

78:                                               ; preds = %77
  store i32 0, ptr %3, align 4
  store i32 1, ptr %9, align 4
  br label %79

79:                                               ; preds = %78, %76, %67, %56
  call void @llvm.lifetime.end.p0(i64 8, ptr %7) #10
  call void @llvm.lifetime.end.p0(i64 8, ptr %6) #10
  %80 = load i32, ptr %3, align 4
  ret i32 %80
}