; Function Attrs: nounwind uwtable
define dso_local range(i32 -1, 2) i32 @slurmdb_sort_tres_by_id_asc(ptr noundef readonly captures(none) %0, ptr noundef readonly captures(none) %1) #0 {
  %3 = load ptr, ptr %0, align 8
  %4 = load ptr, ptr %1, align 8
  %5 = getelementptr inbounds nuw i8, ptr %3, i64 24
  %6 = load i32, ptr %5, align 8
  %7 = icmp ugt i32 %6, 9
  br i1 %7, label %8, label %28

8:                                                ; preds = %2
  %9 = getelementptr inbounds nuw i8, ptr %4, i64 24
  %10 = load i32, ptr %9, align 8
  %11 = icmp ugt i32 %10, 9
  br i1 %11, label %12, label %28

12:                                               ; preds = %8
  %13 = getelementptr inbounds nuw i8, ptr %3, i64 40
  %14 = load ptr, ptr %13, align 8
  %15 = getelementptr inbounds nuw i8, ptr %4, i64 40
  %16 = load ptr, ptr %15, align 8
  %17 = tail call i32 @xstrcmp(ptr noundef %14, ptr noundef %16) #19
  %18 = icmp slt i32 %17, 0
  br i1 %18, label %.thread, label %19

19:                                               ; preds = %12
  %.not = icmp eq i32 %17, 0
  br i1 %.not, label %20, label %.thread

20:                                               ; preds = %19
  %21 = getelementptr inbounds nuw i8, ptr %3, i64 32
  %22 = load ptr, ptr %21, align 8
  %23 = getelementptr inbounds nuw i8, ptr %4, i64 32
  %24 = load ptr, ptr %23, align 8
  %25 = tail call i32 @xstrcmp(ptr noundef %22, ptr noundef %24) #19
  %26 = icmp slt i32 %25, 0
  br i1 %26, label %.thread, label %27

27:                                               ; preds = %20
  %.not22 = icmp eq i32 %25, 0
  br i1 %.not22, label %._crit_edge, label %.thread

._crit_edge:                                      ; preds = %27
  %.pre = load i32, ptr %5, align 8
  br label %28

28:                                               ; preds = %._crit_edge, %8, %2
  %29 = phi i32 [ %.pre, %._crit_edge ], [ %6, %8 ], [ %6, %2 ]
  %30 = getelementptr inbounds nuw i8, ptr %4, i64 24
  %31 = load i32, ptr %30, align 8
  %32 = icmp ult i32 %29, %31
  br i1 %32, label %.thread, label %33

33:                                               ; preds = %28
  %34 = icmp ugt i32 %29, %31
  %.24 = zext i1 %34 to i32
  br label %.thread

.thread:                                          ; preds = %20, %19, %12, %33, %28, %27
  %.1 = phi i32 [ 1, %27 ], [ -1, %28 ], [ %.24, %33 ], [ -1, %20 ], [ 1, %19 ], [ -1, %12 ]
  ret i32 %.1
}